; Function Attrs: mustprogress nofree norecurse nounwind willreturn memory(readwrite, argmem: none, inaccessiblemem: none) uwtable
define noundef zeroext i1 @_ZN5folly10rtmEnabledEv() local_unnamed_addr #0 personality ptr @__gxx_personality_v0 {
  %1 = load atomic i32, ptr @_ZZN5folly10rtmEnabledEvE6result.0 monotonic, align 4
  %2 = icmp slt i32 %1, 0
  br i1 %2, label %3, label %4

3:                                                ; preds = %0
  store atomic i32 0, ptr @_ZZN5folly10rtmEnabledEvE6result.0 monotonic, align 4
  br label %4

4:                                                ; preds = %3, %0
  %.0 = phi i32 [ 0, %3 ], [ %1, %0 ]
  %5 = icmp ne i32 %.0, 0
  ret i1 %5
}